target datalayout = "e-m:e-p270:32:32-p271:32:32-p272:64:64-i64:64-i128:128-f80:128-n8:16:32:64-S128"
target triple = "x86_64-pc-linux-gnu"

%struct.WindowAggState = type { %struct.ScanState, ptr, i32, i32, ptr, ptr, ptr, ptr, ptr, i32, i32, i32, i32, i64, i64, i64, i64, ptr, i64, i64, i32, i32, ptr, ptr, i64, i64, %struct.FmgrInfo, %struct.FmgrInfo, i32, i8, i8, i8, i8, ptr, i64, i64, i64, i64, i64, ptr, ptr, ptr, ptr, i8, i8, i8, i8, i8, i8, i8, ptr, ptr, ptr, ptr, ptr, ptr }
%struct.ScanState = type { %struct.PlanState, ptr, ptr, ptr }
%struct.PlanState = type { i32, ptr, ptr, ptr, ptr, ptr, ptr, ptr, ptr, ptr, ptr, ptr, ptr, ptr, ptr, ptr, ptr, ptr, i8, ptr, ptr, ptr, ptr, ptr, i8, i8, i8, i8, i8, i8, i8, i8 }
%struct.FmgrInfo = type { ptr, i32, i16, i8, i8, i8, ptr, ptr, ptr }
%struct.WindowObjectData = type { i32, ptr, ptr, ptr, i32, i32, i64, i64 }

; Function Attrs: nounwind uwtable
define dso_local i64 @WinGetPartitionRowCount(ptr noundef %0) #0 {
  %2 = alloca ptr, align 8
  store ptr %0, ptr %2, align 8
  %3 = load ptr, ptr %2, align 8
  %4 = getelementptr inbounds nuw %struct.WindowObjectData, ptr %3, i32 0, i32 1
  %5 = load ptr, ptr %4, align 8
  call void @spool_tuples(ptr noundef %5, i64 noundef -1)
  %6 = load ptr, ptr %2, align 8
  %7 = getelementptr inbounds nuw %struct.WindowObjectData, ptr %6, i32 0, i32 1
  %8 = load ptr, ptr %7, align 8
  %9 = getelementptr inbounds nuw %struct.WindowAggState, ptr %8, i32 0, i32 13
  %10 = load i64, ptr %9, align 8
  ret i64 %10
}