; Function Attrs: nounwind uwtable
define dso_local i64 @WinGetPartitionRowCount(ptr noundef readonly captures(none) %0) local_unnamed_addr #0 {
  %2 = getelementptr inbounds nuw i8, ptr %0, i64 8
  %3 = load ptr, ptr %2, align 8
  tail call fastcc void @spool_tuples(ptr noundef %3, i64 noundef -1)
  %4 = load ptr, ptr %2, align 8
  %5 = getelementptr inbounds nuw i8, ptr %4, i64 296
  %6 = load i64, ptr %5, align 8
  ret i64 %6
}